target datalayout = "e-m:e-p270:32:32-p271:32:32-p272:64:64-i64:64-i128:128-f80:128-n8:16:32:64-S128"
target triple = "x86_64-pc-linux-gnu"

%struct.lua_State = type { ptr, i8, i8, i8, i8, i16, %union.StkIdRel, ptr, ptr, %union.StkIdRel, %union.StkIdRel, ptr, %union.StkIdRel, ptr, ptr, ptr, %struct.CallInfo, ptr, i64, i32, i32, i32, i32, i32, %struct.anon.2 }
%union.StkIdRel = type { ptr }
%struct.CallInfo = type { %union.StkIdRel, %union.StkIdRel, ptr, ptr, %union.anon, %union.anon.1, i32 }
%union.anon = type { %struct.anon.0 }
%struct.anon.0 = type { ptr, i64, i64 }
%union.anon.1 = type { i32 }
%struct.anon.2 = type { i32, i32 }
%struct.global_State = type { ptr, ptr, i64, i64, i64, i64, %struct.stringtable, %struct.TValue, %struct.TValue, i32, [6 x i8], i8, i8, i8, i8, i8, i8, ptr, ptr, ptr, ptr, ptr, ptr, ptr, ptr, ptr, ptr, ptr, ptr, ptr, ptr, ptr, ptr, ptr, ptr, ptr, ptr, ptr, [25 x ptr], [9 x ptr], [53 x [2 x ptr]], ptr, ptr }
%struct.stringtable = type { ptr, i32, i32 }
%struct.TValue = type { %union.Value, i8 }
%union.Value = type { ptr }
%struct.GCObject = type { ptr, i8, i8 }

; Function Attrs: nounwind uwtable
define hidden void @luaC_fix(ptr noundef %0, ptr noundef %1) #0 {
  %3 = alloca ptr, align 8
  %4 = alloca ptr, align 8
  %5 = alloca ptr, align 8
  store ptr %0, ptr %3, align 8, !tbaa !4
  store ptr %1, ptr %4, align 8, !tbaa !9
  call void @llvm.lifetime.start.p0(i64 8, ptr %5) #6
  %6 = load ptr, ptr %3, align 8, !tbaa !4
  %7 = getelementptr inbounds nuw %struct.lua_State, ptr %6, i32 0, i32 7
  %8 = load ptr, ptr %7, align 8, !tbaa !11
  store ptr %8, ptr %5, align 8, !tbaa !22
  %9 = load ptr, ptr %4, align 8, !tbaa !9
  %10 = getelementptr inbounds nuw %struct.GCObject, ptr %9, i32 0, i32 2
  %11 = load i8, ptr %10, align 1, !tbaa !30
  %12 = zext i8 %11 to i32
  %13 = and i32 %12, 199
  %14 = trunc i32 %13 to i8
  store i8 %14, ptr %10, align 1, !tbaa !30
  %15 = load ptr, ptr %4, align 8, !tbaa !9
  %16 = getelementptr inbounds nuw %struct.GCObject, ptr %15, i32 0, i32 2
  %17 = load i8, ptr %16, align 1, !tbaa !30
  %18 = zext i8 %17 to i32
  %19 = and i32 %18, -8
  %20 = or i32 %19, 4
  %21 = trunc i32 %20 to i8
  %22 = load ptr, ptr %4, align 8, !tbaa !9
  %23 = getelementptr inbounds nuw %struct.GCObject, ptr %22, i32 0, i32 2
  store i8 %21, ptr %23, align 1, !tbaa !30
  %24 = load ptr, ptr %4, align 8, !tbaa !9
  %25 = getelementptr inbounds nuw %struct.GCObject, ptr %24, i32 0, i32 0
  %26 = load ptr, ptr %25, align 8, !tbaa !53
  %27 = load ptr, ptr %5, align 8, !tbaa !22
  %28 = getelementptr inbounds nuw %struct.global_State, ptr %27, i32 0, i32 17
  store ptr %26, ptr %28, align 8, !tbaa !54
  %29 = load ptr, ptr %5, align 8, !tbaa !22
  %30 = getelementptr inbounds nuw %struct.global_State, ptr %29, i32 0, i32 26
  %31 = load ptr, ptr %30, align 8, !tbaa !55
  %32 = load ptr, ptr %4, align 8, !tbaa !9
  %33 = getelementptr inbounds nuw %struct.GCObject, ptr %32, i32 0, i32 0
  store ptr %31, ptr %33, align 8, !tbaa !53
  %34 = load ptr, ptr %4, align 8, !tbaa !9
  %35 = load ptr, ptr %5, align 8, !tbaa !22
  %36 = getelementptr inbounds nuw %struct.global_State, ptr %35, i32 0, i32 26
  store ptr %34, ptr %36, align 8, !tbaa !55
  call void @llvm.lifetime.end.p0(i64 8, ptr %5) #6
  ret void
}