; Function Attrs: mustprogress nofree norecurse nosync nounwind willreturn memory(readwrite, inaccessiblemem: none) uwtable
define hidden void @luaC_fix(ptr noundef readonly captures(none) %0, ptr noundef %1) local_unnamed_addr #2 {
  %3 = getelementptr inbounds nuw i8, ptr %0, i64 24
  %4 = load ptr, ptr %3, align 8, !tbaa !4
  %5 = getelementptr inbounds nuw i8, ptr %1, i64 9
  %6 = load i8, ptr %5, align 1, !tbaa !27
  %7 = and i8 %6, -64
  %8 = or disjoint i8 %7, 4
  store i8 %8, ptr %5, align 1, !tbaa !27
  %9 = load ptr, ptr %1, align 8, !tbaa !47
  %10 = getelementptr inbounds nuw i8, ptr %4, i64 112
  store ptr %9, ptr %10, align 8, !tbaa !48
  %11 = getelementptr inbounds nuw i8, ptr %4, i64 184
  %12 = load ptr, ptr %11, align 8, !tbaa !49
  store ptr %12, ptr %1, align 8, !tbaa !47
  store ptr %1, ptr %11, align 8, !tbaa !49
  ret void
}